target datalayout = "e-m:e-p270:32:32-p271:32:32-p272:64:64-i64:64-i128:128-f80:128-n8:16:32:64-S128"
target triple = "x86_64-pc-linux-gnu"

%"class.std::__cxx11::basic_string" = type { %"struct.std::__cxx11::basic_string<char>::_Alloc_hider", i64, %union.anon }
%"struct.std::__cxx11::basic_string<char>::_Alloc_hider" = type { ptr }
%union.anon = type { i64, [8 x i8] }
%"struct.Yosys::RTLIL::IdString" = type { i32 }
%"class.std::vector.29" = type { %"struct.std::_Vector_base.30" }
%"struct.std::_Vector_base.30" = type { %"struct.std::_Vector_base<int, std::allocator<int>>::_Vector_impl" }
%"struct.std::_Vector_base<int, std::allocator<int>>::_Vector_impl" = type { %"struct.std::_Vector_base<int, std::allocator<int>>::_Vector_impl_data" }
%"struct.std::_Vector_base<int, std::allocator<int>>::_Vector_impl_data" = type { ptr, ptr, ptr }
%"struct.Yosys::hashlib::hash_ops.111" = type { i8 }
%"class.Yosys::hashlib::pool.895" = type <{ %"class.std::vector.29", %"class.std::vector.896", %"struct.Yosys::hashlib::hash_ops.111", [7 x i8] }>
%"class.std::vector.896" = type { %"struct.std::_Vector_base.897" }
%"struct.std::_Vector_base.897" = type { %"struct.std::_Vector_base<Yosys::hashlib::pool<std::__cxx11::basic_string<char>>::entry_t, std::allocator<Yosys::hashlib::pool<std::__cxx11::basic_string<char>>::entry_t>>::_Vector_impl" }
%"struct.std::_Vector_base<Yosys::hashlib::pool<std::__cxx11::basic_string<char>>::entry_t, std::allocator<Yosys::hashlib::pool<std::__cxx11::basic_string<char>>::entry_t>>::_Vector_impl" = type { %"struct.std::_Vector_base<Yosys::hashlib::pool<std::__cxx11::basic_string<char>>::entry_t, std::allocator<Yosys::hashlib::pool<std::__cxx11::basic_string<char>>::entry_t>>::_Vector_impl_data" }
%"struct.std::_Vector_base<Yosys::hashlib::pool<std::__cxx11::basic_string<char>>::entry_t, std::allocator<Yosys::hashlib::pool<std::__cxx11::basic_string<char>>::entry_t>>::_Vector_impl_data" = type { ptr, ptr, ptr }
%"class.Yosys::hashlib::pool<std::__cxx11::basic_string<char>>::iterator" = type <{ ptr, i32, [4 x i8] }>
%"struct.Yosys::hashlib::pool<std::__cxx11::basic_string<char>>::entry_t" = type <{ %"class.std::__cxx11::basic_string", i32, [4 x i8] }>

@_ZN5Yosys5RTLIL2ID3srcE = external global %"struct.Yosys::RTLIL::IdString", align 4
@.str.275 = private unnamed_addr constant [8 x i8] c"    %s\0A\00", align 1

; Function Attrs: mustprogress nounwind uwtable
define linkonce_odr noundef nonnull align 8 dereferenceable(36) ptr @_ZNSt6vectorIN5Yosys7hashlib4poolINSt7__cxx1112basic_stringIcSt11char_traitsIcESaIcEEENS1_8hash_opsIS8_EEE7entry_tESaISC_EEixEm(ptr noundef nonnull align 8 dereferenceable(24) %0, i64 noundef %1) #5 comdat align 2 {
  %3 = alloca ptr, align 8
  %4 = alloca i64, align 8
  store ptr %0, ptr %3, align 8
  store i64 %1, ptr %4, align 8
  %5 = load ptr, ptr %3, align 8
  %6 = getelementptr inbounds %"struct.std::_Vector_base.897", ptr %5, i32 0, i32 0
  %7 = getelementptr inbounds %"struct.std::_Vector_base<Yosys::hashlib::pool<std::__cxx11::basic_string<char>>::entry_t, std::allocator<Yosys::hashlib::pool<std::__cxx11::basic_string<char>>::entry_t>>::_Vector_impl_data", ptr %6, i32 0, i32 0
  %8 = load ptr, ptr %7, align 8
  %9 = load i64, ptr %4, align 8
  %10 = getelementptr inbounds %"struct.Yosys::hashlib::pool<std::__cxx11::basic_string<char>>::entry_t", ptr %8, i64 %9
  ret ptr %10
}

; Function Attrs: mustprogress nounwind uwtable
define linkonce_odr void @_ZN5Yosys7hashlib4poolINSt7__cxx1112basic_stringIcSt11char_traitsIcESaIcEEENS0_8hash_opsIS7_EEE8iteratorC2EPSA_i(ptr noundef nonnull align 8 dereferenceable(12) %0, ptr noundef %1, i32 noundef %2) unnamed_addr #5 comdat align 2 {
  %4 = alloca ptr, align 8
  %5 = alloca ptr, align 8
  %6 = alloca i32, align 4
  store ptr %0, ptr %4, align 8
  store ptr %1, ptr %5, align 8
  store i32 %2, ptr %6, align 4
  %7 = load ptr, ptr %4, align 8
  %8 = getelementptr inbounds %"class.Yosys::hashlib::pool<std::__cxx11::basic_string<char>>::iterator", ptr %7, i32 0, i32 0
  %9 = load ptr, ptr %5, align 8
  store ptr %9, ptr %8, align 8
  %10 = getelementptr inbounds %"class.Yosys::hashlib::pool<std::__cxx11::basic_string<char>>::iterator", ptr %7, i32 0, i32 1
  %11 = load i32, ptr %6, align 4
  store i32 %11, ptr %10, align 8
  ret void
}

; Function Attrs: mustprogress nounwind uwtable
define linkonce_odr noundef i64 @_ZNKSt6vectorIN5Yosys7hashlib4poolINSt7__cxx1112basic_stringIcSt11char_traitsIcESaIcEEENS1_8hash_opsIS8_EEE7entry_tESaISC_EE4sizeEv(ptr noundef nonnull align 8 dereferenceable(24) %0) #5 comdat align 2 {
  %2 = alloca ptr, align 8
  store ptr %0, ptr %2, align 8
  %3 = load ptr, ptr %2, align 8
  %4 = getelementptr inbounds %"struct.std::_Vector_base.897", ptr %3, i32 0, i32 0
  %5 = getelementptr inbounds %"struct.std::_Vector_base<Yosys::hashlib::pool<std::__cxx11::basic_string<char>>::entry_t, std::allocator<Yosys::hashlib::pool<std::__cxx11::basic_string<char>>::entry_t>>::_Vector_impl_data", ptr %4, i32 0, i32 1
  %6 = load ptr, ptr %5, align 8
  %7 = getelementptr inbounds %"struct.std::_Vector_base.897", ptr %3, i32 0, i32 0
  %8 = getelementptr inbounds %"struct.std::_Vector_base<Yosys::hashlib::pool<std::__cxx11::basic_string<char>>::entry_t, std::allocator<Yosys::hashlib::pool<std::__cxx11::basic_string<char>>::entry_t>>::_Vector_impl_data", ptr %7, i32 0, i32 0
  %9 = load ptr, ptr %8, align 8
  %10 = ptrtoint ptr %6 to i64
  %11 = ptrtoint ptr %9 to i64
  %12 = sub i64 %10, %11
  %13 = sdiv exact i64 %12, 40
  ret i64 %13
}

; Function Attrs: mustprogress nounwind uwtable
define linkonce_odr { ptr, i32 } @_ZN5Yosys7hashlib4poolINSt7__cxx1112basic_stringIcSt11char_traitsIcESaIcEEENS0_8hash_opsIS7_EEE8iteratorppEv(ptr noundef nonnull align 8 dereferenceable(12) %0) #5 comdat align 2 {
  %2 = alloca %"class.Yosys::hashlib::pool<std::__cxx11::basic_string<char>>::iterator", align 8
  %3 = alloca ptr, align 8
  store ptr %0, ptr %3, align 8
  %4 = load ptr, ptr %3, align 8
  %5 = getelementptr inbounds %"class.Yosys::hashlib::pool<std::__cxx11::basic_string<char>>::iterator", ptr %4, i32 0, i32 1
  %6 = load i32, ptr %5, align 8
  %7 = add nsw i32 %6, -1
  store i32 %7, ptr %5, align 8
  call void @llvm.memcpy.p0.p0.i64(ptr align 8 %2, ptr align 8 %4, i64 16, i1 false)
  %8 = load { ptr, i32 }, ptr %2, align 8
  ret { ptr, i32 } %8
}

; Function Attrs: mustprogress nounwind uwtable
define linkonce_odr noundef nonnull align 8 dereferenceable(32) ptr @_ZN5Yosys7hashlib4poolINSt7__cxx1112basic_stringIcSt11char_traitsIcESaIcEEENS0_8hash_opsIS7_EEE8iteratordeEv(ptr noundef nonnull align 8 dereferenceable(12) %0) #5 comdat align 2 {
  %2 = alloca ptr, align 8
  store ptr %0, ptr %2, align 8
  %3 = load ptr, ptr %2, align 8
  %4 = getelementptr inbounds %"class.Yosys::hashlib::pool<std::__cxx11::basic_string<char>>::iterator", ptr %3, i32 0, i32 0
  %5 = load ptr, ptr %4, align 8
  %6 = getelementptr inbounds %"class.Yosys::hashlib::pool.895", ptr %5, i32 0, i32 1
  %7 = getelementptr inbounds %"class.Yosys::hashlib::pool<std::__cxx11::basic_string<char>>::iterator", ptr %3, i32 0, i32 1
  %8 = load i32, ptr %7, align 8
  %9 = sext i32 %8 to i64
  %10 = call noundef nonnull align 8 dereferenceable(36) ptr @_ZNSt6vectorIN5Yosys7hashlib4poolINSt7__cxx1112basic_stringIcSt11char_traitsIcESaIcEEENS1_8hash_opsIS8_EEE7entry_tESaISC_EEixEm(ptr noundef nonnull align 8 dereferenceable(24) %6, i64 noundef %9) #3
  %11 = getelementptr inbounds %"struct.Yosys::hashlib::pool<std::__cxx11::basic_string<char>>::entry_t", ptr %10, i32 0, i32 0
  ret ptr %11
}

; Function Attrs: mustprogress nounwind uwtable
define linkonce_odr noundef zeroext i1 @_ZNK5Yosys7hashlib4poolINSt7__cxx1112basic_stringIcSt11char_traitsIcESaIcEEENS0_8hash_opsIS7_EEE8iteratorneERKSB_(ptr noundef nonnull align 8 dereferenceable(12) %0, ptr noundef nonnull align 8 dereferenceable(12) %1) #5 comdat align 2 {
  %3 = alloca ptr, align 8
  %4 = alloca ptr, align 8
  store ptr %0, ptr %3, align 8
  store ptr %1, ptr %4, align 8
  %5 = load ptr, ptr %3, align 8
  %6 = getelementptr inbounds %"class.Yosys::hashlib::pool<std::__cxx11::basic_string<char>>::iterator", ptr %5, i32 0, i32 1
  %7 = load i32, ptr %6, align 8
  %8 = load ptr, ptr %4, align 8
  %9 = getelementptr inbounds %"class.Yosys::hashlib::pool<std::__cxx11::basic_string<char>>::iterator", ptr %8, i32 0, i32 1
  %10 = load i32, ptr %9, align 8
  %11 = icmp ne i32 %7, %10
  ret i1 %11
}

; Function Attrs: mustprogress uwtable
define linkonce_odr { ptr, i32 } @_ZN5Yosys7hashlib4poolINSt7__cxx1112basic_stringIcSt11char_traitsIcESaIcEEENS0_8hash_opsIS7_EEE3endEv(ptr noundef nonnull align 8 dereferenceable(49) %0) #4 comdat align 2 {
  %2 = alloca %"class.Yosys::hashlib::pool<std::__cxx11::basic_string<char>>::iterator", align 8
  %3 = alloca ptr, align 8
  store ptr %0, ptr %3, align 8
  call void @_ZN5Yosys7hashlib4poolINSt7__cxx1112basic_stringIcSt11char_traitsIcESaIcEEENS0_8hash_opsIS7_EEE8iteratorC2EPSA_i(ptr noundef nonnull align 8 dereferenceable(12) %2, ptr noundef null, i32 noundef -1)
  %4 = load { ptr, i32 }, ptr %2, align 8
  ret { ptr, i32 } %4
}

; Function Attrs: mustprogress uwtable
define linkonce_odr { ptr, i32 } @_ZN5Yosys7hashlib4poolINSt7__cxx1112basic_stringIcSt11char_traitsIcESaIcEEENS0_8hash_opsIS7_EEE5beginEv(ptr noundef nonnull align 8 dereferenceable(49) %0) #4 comdat align 2 {
  %2 = alloca %"class.Yosys::hashlib::pool<std::__cxx11::basic_string<char>>::iterator", align 8
  %3 = alloca ptr, align 8
  store ptr %0, ptr %3, align 8
  %4 = load ptr, ptr %3, align 8
  %5 = getelementptr inbounds %"class.Yosys::hashlib::pool.895", ptr %4, i32 0, i32 1
  %6 = call noundef i64 @_ZNKSt6vectorIN5Yosys7hashlib4poolINSt7__cxx1112basic_stringIcSt11char_traitsIcESaIcEEENS1_8hash_opsIS8_EEE7entry_tESaISC_EE4sizeEv(ptr noundef nonnull align 8 dereferenceable(24) %5) #3
  %7 = trunc i64 %6 to i32
  %8 = sub nsw i32 %7, 1
  call void @_ZN5Yosys7hashlib4poolINSt7__cxx1112basic_stringIcSt11char_traitsIcESaIcEEENS0_8hash_opsIS7_EEE8iteratorC2EPSA_i(ptr noundef nonnull align 8 dereferenceable(12) %2, ptr noundef %4, i32 noundef %8)
  %9 = load { ptr, i32 }, ptr %2, align 8
  ret { ptr, i32 } %9
}

; Function Attrs: mustprogress uwtable
define internal void @_ZN12_GLOBAL__N_111SimInstance10log_sourceEPN5Yosys5RTLIL10AttrObjectE(ptr noundef %0) #4 align 2 personality ptr @__gxx_personality_v0 {
  %2 = alloca ptr, align 8
  %3 = alloca ptr, align 8
  %4 = alloca %"class.Yosys::hashlib::pool.895", align 8
  %5 = alloca %"class.Yosys::hashlib::pool<std::__cxx11::basic_string<char>>::iterator", align 8
  %6 = alloca ptr, align 8
  %7 = alloca i32, align 4
  %8 = alloca %"class.Yosys::hashlib::pool<std::__cxx11::basic_string<char>>::iterator", align 8
  %9 = alloca %"class.std::__cxx11::basic_string", align 8
  %10 = alloca %"class.Yosys::hashlib::pool<std::__cxx11::basic_string<char>>::iterator", align 8
  store ptr %0, ptr %2, align 8
  %11 = load ptr, ptr %2, align 8
  call void @_ZNK5Yosys5RTLIL10AttrObject21get_strpool_attributeB5cxx11ERKNS0_8IdStringE(ptr dead_on_unwind writable sret(%"class.Yosys::hashlib::pool.895") align 8 %4, ptr noundef nonnull align 8 dereferenceable(56) %11, ptr noundef nonnull align 4 dereferenceable(4) @_ZN5Yosys5RTLIL2ID3srcE)
  store ptr %4, ptr %3, align 8
  %12 = load ptr, ptr %3, align 8
  %13 = invoke { ptr, i32 } @_ZN5Yosys7hashlib4poolINSt7__cxx1112basic_stringIcSt11char_traitsIcESaIcEEENS0_8hash_opsIS7_EEE5beginEv(ptr noundef nonnull align 8 dereferenceable(49) %12)
          to label %14 unwind label %30

14:                                               ; preds = %1
  %15 = getelementptr inbounds { ptr, i32 }, ptr %5, i32 0, i32 0
  %16 = extractvalue { ptr, i32 } %13, 0
  store ptr %16, ptr %15, align 8
  %17 = getelementptr inbounds { ptr, i32 }, ptr %5, i32 0, i32 1
  %18 = extractvalue { ptr, i32 } %13, 1
  store i32 %18, ptr %17, align 8
  %19 = load ptr, ptr %3, align 8
  %20 = invoke { ptr, i32 } @_ZN5Yosys7hashlib4poolINSt7__cxx1112basic_stringIcSt11char_traitsIcESaIcEEENS0_8hash_opsIS7_EEE3endEv(ptr noundef nonnull align 8 dereferenceable(49) %19)
          to label %21 unwind label %30

21:                                               ; preds = %14
  %22 = getelementptr inbounds { ptr, i32 }, ptr %8, i32 0, i32 0
  %23 = extractvalue { ptr, i32 } %20, 0
  store ptr %23, ptr %22, align 8
  %24 = getelementptr inbounds { ptr, i32 }, ptr %8, i32 0, i32 1
  %25 = extractvalue { ptr, i32 } %20, 1
  store i32 %25, ptr %24, align 8
  br label %26

26:                                               ; preds = %42, %21
  %27 = invoke noundef zeroext i1 @_ZNK5Yosys7hashlib4poolINSt7__cxx1112basic_stringIcSt11char_traitsIcESaIcEEENS0_8hash_opsIS7_EEE8iteratorneERKSB_(ptr noundef nonnull align 8 dereferenceable(12) %5, ptr noundef nonnull align 8 dereferenceable(12) %8)
          to label %28 unwind label %30

28:                                               ; preds = %26
  br i1 %27, label %34, label %29

29:                                               ; preds = %28
  call void @_ZN5Yosys7hashlib4poolINSt7__cxx1112basic_stringIcSt11char_traitsIcESaIcEEENS0_8hash_opsIS7_EEED2Ev(ptr noundef nonnull align 8 dereferenceable(49) %4) #3
  br label %52

30:                                               ; preds = %40, %36, %34, %26, %14, %1
  %31 = landingpad { ptr, i32 }
          cleanup
  %32 = extractvalue { ptr, i32 } %31, 0
  store ptr %32, ptr %6, align 8
  %33 = extractvalue { ptr, i32 } %31, 1
  store i32 %33, ptr %7, align 4
  br label %51

34:                                               ; preds = %28
  %35 = invoke noundef nonnull align 8 dereferenceable(32) ptr @_ZN5Yosys7hashlib4poolINSt7__cxx1112basic_stringIcSt11char_traitsIcESaIcEEENS0_8hash_opsIS7_EEE8iteratordeEv(ptr noundef nonnull align 8 dereferenceable(12) %5)
          to label %36 unwind label %30

36:                                               ; preds = %34
  invoke void @_ZNSt7__cxx1112basic_stringIcSt11char_traitsIcESaIcEEC1ERKS4_(ptr noundef nonnull align 8 dereferenceable(32) %9, ptr noundef nonnull align 8 dereferenceable(32) %35)
          to label %37 unwind label %30

37:                                               ; preds = %36
  %38 = call noundef ptr @_ZNKSt7__cxx1112basic_stringIcSt11char_traitsIcESaIcEE5c_strEv(ptr noundef nonnull align 8 dereferenceable(32) %9) #3
  invoke void (ptr, ...) @_ZN5Yosys3logEPKcz(ptr noundef @.str.275, ptr noundef %38)
          to label %39 unwind label %47

39:                                               ; preds = %37
  call void @_ZNSt7__cxx1112basic_stringIcSt11char_traitsIcESaIcEED1Ev(ptr noundef nonnull align 8 dereferenceable(32) %9) #3
  br label %40

40:                                               ; preds = %39
  %41 = invoke { ptr, i32 } @_ZN5Yosys7hashlib4poolINSt7__cxx1112basic_stringIcSt11char_traitsIcESaIcEEENS0_8hash_opsIS7_EEE8iteratorppEv(ptr noundef nonnull align 8 dereferenceable(12) %5)
          to label %42 unwind label %30

42:                                               ; preds = %40
  %43 = getelementptr inbounds { ptr, i32 }, ptr %10, i32 0, i32 0
  %44 = extractvalue { ptr, i32 } %41, 0
  store ptr %44, ptr %43, align 8
  %45 = getelementptr inbounds { ptr, i32 }, ptr %10, i32 0, i32 1
  %46 = extractvalue { ptr, i32 } %41, 1
  store i32 %46, ptr %45, align 8
  br label %26

47:                                               ; preds = %37
  %48 = landingpad { ptr, i32 }
          cleanup
  %49 = extractvalue { ptr, i32 } %48, 0
  store ptr %49, ptr %6, align 8
  %50 = extractvalue { ptr, i32 } %48, 1
  store i32 %50, ptr %7, align 4
  call void @_ZNSt7__cxx1112basic_stringIcSt11char_traitsIcESaIcEED1Ev(ptr noundef nonnull align 8 dereferenceable(32) %9) #3
  br label %51

51:                                               ; preds = %47, %30
  call void @_ZN5Yosys7hashlib4poolINSt7__cxx1112basic_stringIcSt11char_traitsIcESaIcEEENS0_8hash_opsIS7_EEED2Ev(ptr noundef nonnull align 8 dereferenceable(49) %4) #3
  br label %53

52:                                               ; preds = %29
  ret void

53:                                               ; preds = %51
  %54 = load ptr, ptr %6, align 8
  %55 = load i32, ptr %7, align 4
  %56 = insertvalue { ptr, i32 } poison, ptr %54, 0
  %57 = insertvalue { ptr, i32 } %56, i32 %55, 1
  resume { ptr, i32 } %57
}