; Function Attrs: mustprogress uwtable
define internal fastcc void @_ZN12_GLOBAL__N_111SimInstance10log_sourceEPN5Yosys5RTLIL10AttrObjectE(ptr noundef nonnull %0) unnamed_addr #4 align 2 personality ptr @__gxx_personality_v0 {
  %2 = alloca %"class.Yosys::hashlib::pool.895", align 8
  %3 = alloca %"class.std::__cxx11::basic_string", align 8
  call void @_ZNK5Yosys5RTLIL10AttrObject21get_strpool_attributeB5cxx11ERKNS0_8IdStringE(ptr dead_on_unwind nonnull writable sret(%"class.Yosys::hashlib::pool.895") align 8 %2, ptr noundef nonnull align 8 dereferenceable(56) %0, ptr noundef nonnull align 4 dereferenceable(4) @_ZN5Yosys5RTLIL2ID3srcE)
  %4 = getelementptr inbounds i8, ptr %2, i64 24
  %5 = getelementptr inbounds i8, ptr %2, i64 32
  %6 = load ptr, ptr %5, align 8
  %7 = load ptr, ptr %4, align 8
  %8 = ptrtoint ptr %6 to i64
  %9 = ptrtoint ptr %7 to i64
  %10 = sub i64 %8, %9
  %11 = sdiv exact i64 %10, 40
  %12 = and i64 %11, 4294967295
  %.not12 = icmp eq i64 %12, 0
  br i1 %.not12, label %._crit_edge, label %.lr.ph.preheader

.lr.ph.preheader:                                 ; preds = %1
  %sext = shl i64 %11, 32
  %13 = ashr exact i64 %sext, 32
  br label %.lr.ph

._crit_edge.loopexit:                             ; preds = %27
  %.pre = load ptr, ptr %4, align 8
  %.pre15 = load ptr, ptr %5, align 8
  br label %._crit_edge

._crit_edge:                                      ; preds = %._crit_edge.loopexit, %1
  %14 = phi ptr [ %.pre15, %._crit_edge.loopexit ], [ %6, %1 ]
  %15 = phi ptr [ %.pre, %._crit_edge.loopexit ], [ %7, %1 ]
  %.not4.i.i.i.i.i = icmp eq ptr %15, %14
  br i1 %.not4.i.i.i.i.i, label %_ZSt8_DestroyIPN5Yosys7hashlib4poolINSt7__cxx1112basic_stringIcSt11char_traitsIcESaIcEEENS1_8hash_opsIS8_EEE7entry_tESC_EvT_SE_RSaIT0_E.exit.i.i, label %.lr.ph.i.i.i.i.i

.lr.ph.i.i.i.i.i:                                 ; preds = %._crit_edge, %.lr.ph.i.i.i.i.i
  %.05.i.i.i.i.i = phi ptr [ %16, %.lr.ph.i.i.i.i.i ], [ %15, %._crit_edge ]
  call void @_ZNSt7__cxx1112basic_stringIcSt11char_traitsIcESaIcEED1Ev(ptr noundef nonnull align 8 dereferenceable(32) %.05.i.i.i.i.i) #31
  %16 = getelementptr inbounds i8, ptr %.05.i.i.i.i.i, i64 40
  %.not.i.i.i.i.i = icmp eq ptr %16, %14
  br i1 %.not.i.i.i.i.i, label %_ZSt8_DestroyIPN5Yosys7hashlib4poolINSt7__cxx1112basic_stringIcSt11char_traitsIcESaIcEEENS1_8hash_opsIS8_EEE7entry_tESC_EvT_SE_RSaIT0_E.exitthread-pre-split.i.i, label %.lr.ph.i.i.i.i.i, !llvm.loop !697

_ZSt8_DestroyIPN5Yosys7hashlib4poolINSt7__cxx1112basic_stringIcSt11char_traitsIcESaIcEEENS1_8hash_opsIS8_EEE7entry_tESC_EvT_SE_RSaIT0_E.exitthread-pre-split.i.i: ; preds = %.lr.ph.i.i.i.i.i
  %.pr.i.i = load ptr, ptr %4, align 8
  br label %_ZSt8_DestroyIPN5Yosys7hashlib4poolINSt7__cxx1112basic_stringIcSt11char_traitsIcESaIcEEENS1_8hash_opsIS8_EEE7entry_tESC_EvT_SE_RSaIT0_E.exit.i.i

_ZSt8_DestroyIPN5Yosys7hashlib4poolINSt7__cxx1112basic_stringIcSt11char_traitsIcESaIcEEENS1_8hash_opsIS8_EEE7entry_tESC_EvT_SE_RSaIT0_E.exit.i.i: ; preds = %_ZSt8_DestroyIPN5Yosys7hashlib4poolINSt7__cxx1112basic_stringIcSt11char_traitsIcESaIcEEENS1_8hash_opsIS8_EEE7entry_tESC_EvT_SE_RSaIT0_E.exitthread-pre-split.i.i, %._crit_edge
  %17 = phi ptr [ %.pr.i.i, %_ZSt8_DestroyIPN5Yosys7hashlib4poolINSt7__cxx1112basic_stringIcSt11char_traitsIcESaIcEEENS1_8hash_opsIS8_EEE7entry_tESC_EvT_SE_RSaIT0_E.exitthread-pre-split.i.i ], [ %14, %._crit_edge ]
  %.not.i.i.i.i = icmp eq ptr %17, null
  br i1 %.not.i.i.i.i, label %_ZNSt6vectorIN5Yosys7hashlib4poolINSt7__cxx1112basic_stringIcSt11char_traitsIcESaIcEEENS1_8hash_opsIS8_EEE7entry_tESaISC_EED2Ev.exit.i, label %18

18:                                               ; preds = %_ZSt8_DestroyIPN5Yosys7hashlib4poolINSt7__cxx1112basic_stringIcSt11char_traitsIcESaIcEEENS1_8hash_opsIS8_EEE7entry_tESC_EvT_SE_RSaIT0_E.exit.i.i
  call void @_ZdlPv(ptr noundef nonnull %17) #32
  br label %_ZNSt6vectorIN5Yosys7hashlib4poolINSt7__cxx1112basic_stringIcSt11char_traitsIcESaIcEEENS1_8hash_opsIS8_EEE7entry_tESaISC_EED2Ev.exit.i

_ZNSt6vectorIN5Yosys7hashlib4poolINSt7__cxx1112basic_stringIcSt11char_traitsIcESaIcEEENS1_8hash_opsIS8_EEE7entry_tESaISC_EED2Ev.exit.i: ; preds = %18, %_ZSt8_DestroyIPN5Yosys7hashlib4poolINSt7__cxx1112basic_stringIcSt11char_traitsIcESaIcEEENS1_8hash_opsIS8_EEE7entry_tESC_EvT_SE_RSaIT0_E.exit.i.i
  %19 = load ptr, ptr %2, align 8
  %.not.i.i.i1.i = icmp eq ptr %19, null
  br i1 %.not.i.i.i1.i, label %_ZN5Yosys7hashlib4poolINSt7__cxx1112basic_stringIcSt11char_traitsIcESaIcEEENS0_8hash_opsIS7_EEED2Ev.exit, label %20

20:                                               ; preds = %_ZNSt6vectorIN5Yosys7hashlib4poolINSt7__cxx1112basic_stringIcSt11char_traitsIcESaIcEEENS1_8hash_opsIS8_EEE7entry_tESaISC_EED2Ev.exit.i
  call void @_ZdlPv(ptr noundef nonnull %19) #32
  br label %_ZN5Yosys7hashlib4poolINSt7__cxx1112basic_stringIcSt11char_traitsIcESaIcEEENS0_8hash_opsIS7_EEED2Ev.exit

_ZN5Yosys7hashlib4poolINSt7__cxx1112basic_stringIcSt11char_traitsIcESaIcEEENS0_8hash_opsIS7_EEED2Ev.exit: ; preds = %_ZNSt6vectorIN5Yosys7hashlib4poolINSt7__cxx1112basic_stringIcSt11char_traitsIcESaIcEEENS1_8hash_opsIS8_EEE7entry_tESaISC_EED2Ev.exit.i, %20
  ret void

21:                                               ; preds = %.lr.ph
  %22 = landingpad { ptr, i32 }
          cleanup
  br label %31

.lr.ph:                                           ; preds = %.lr.ph.preheader, %27
  %indvars.iv = phi i64 [ %13, %.lr.ph.preheader ], [ %indvars.iv.next, %27 ]
  %indvars.iv.next = add nsw i64 %indvars.iv, -1
  %23 = load ptr, ptr %4, align 8
  %24 = getelementptr inbounds %"struct.Yosys::hashlib::pool<std::__cxx11::basic_string<char>>::entry_t", ptr %23, i64 %indvars.iv.next
  invoke void @_ZNSt7__cxx1112basic_stringIcSt11char_traitsIcESaIcEEC1ERKS4_(ptr noundef nonnull align 8 dereferenceable(32) %3, ptr noundef nonnull align 8 dereferenceable(32) %24)
          to label %25 unwind label %21

25:                                               ; preds = %.lr.ph
  %26 = call noundef ptr @_ZNKSt7__cxx1112basic_stringIcSt11char_traitsIcESaIcEE5c_strEv(ptr noundef nonnull align 8 dereferenceable(32) %3) #31
  invoke void (ptr, ...) @_ZN5Yosys3logEPKcz(ptr noundef nonnull @.str.275, ptr noundef %26)
          to label %27 unwind label %29

27:                                               ; preds = %25
  call void @_ZNSt7__cxx1112basic_stringIcSt11char_traitsIcESaIcEED1Ev(ptr noundef nonnull align 8 dereferenceable(32) %3) #31
  %28 = and i64 %indvars.iv.next, 4294967295
  %.not = icmp eq i64 %28, 0
  br i1 %.not, label %._crit_edge.loopexit, label %.lr.ph

29:                                               ; preds = %25
  %30 = landingpad { ptr, i32 }
          cleanup
  call void @_ZNSt7__cxx1112basic_stringIcSt11char_traitsIcESaIcEED1Ev(ptr noundef nonnull align 8 dereferenceable(32) %3) #31
  br label %31

31:                                               ; preds = %29, %21
  %.pn = phi { ptr, i32 } [ %30, %29 ], [ %22, %21 ]
  call void @_ZN5Yosys7hashlib4poolINSt7__cxx1112basic_stringIcSt11char_traitsIcESaIcEEENS0_8hash_opsIS7_EEED2Ev(ptr noundef nonnull align 8 dereferenceable(49) %2) #31
  resume { ptr, i32 } %.pn
}